(dp0
Vengine
p1
Vpdflatex
p2
sVpackages
p3
c__builtin__
set
p4
((lp5
Vgeometry
p6
aVbabel
p7
aVscalefnt
p8
aVgraphicx
p9
aVtocbibind
p10
aVinputenc
p11
aVnatbib
p12
atp13
Rp14
sVfiles_with_guttermarks
p15
g4
((lp16
V/Users/paulovitormirafonseca/Dropbox/UFABC/TCC/unifesp/tex/./introducao.tex
p17
atp18
Rp19
sVsynctex
p20
I01
s.